target datalayout = "e-m:e-p270:32:32-p271:32:32-p272:64:64-i64:64-i128:128-f80:128-n8:16:32:64-S128"
target triple = "x86_64-pc-linux-gnu"

%"class.cv::Mat" = type { i32, i32, i32, i32, ptr, ptr, ptr, ptr, ptr, ptr, %"struct.cv::MatSize", %"struct.cv::MatStep" }
%"struct.cv::MatSize" = type { ptr }
%"struct.cv::MatStep" = type { ptr, [2 x i64] }
%"class.cv::gapi::fluid::BufferStorage" = type { ptr, %"class.cv::Mat" }
%"struct.cv::GMatDesc" = type { i32, i32, %"class.cv::Size_", i8, %"class.std::vector.5" }
%"class.cv::Size_" = type { i32, i32 }
%"class.std::vector.5" = type { %"struct.std::_Vector_base.6" }
%"struct.std::_Vector_base.6" = type { %"struct.std::_Vector_base<int, std::allocator<int>>::_Vector_impl" }
%"struct.std::_Vector_base<int, std::allocator<int>>::_Vector_impl" = type { %"struct.std::_Vector_base<int, std::allocator<int>>::_Vector_impl_data" }
%"struct.std::_Vector_base<int, std::allocator<int>>::_Vector_impl_data" = type { ptr, ptr, ptr }
%"struct.cv::gapi::fluid::Buffer::Cache" = type { %"class.std::vector.10", %"struct.cv::GMatDesc" }
%"class.std::vector.10" = type { %"struct.std::_Vector_base.11" }
%"struct.std::_Vector_base.11" = type { %"struct.std::_Vector_base<unsigned char *, std::allocator<unsigned char *>>::_Vector_impl" }
%"struct.std::_Vector_base<unsigned char *, std::allocator<unsigned char *>>::_Vector_impl" = type { %"struct.std::_Vector_base<unsigned char *, std::allocator<unsigned char *>>::_Vector_impl_data" }
%"struct.std::_Vector_base<unsigned char *, std::allocator<unsigned char *>>::_Vector_impl_data" = type { ptr, ptr, ptr }
%"class.cv::Rect_" = type { i32, i32, i32, i32 }
%"class.cv::gapi::fluid::Buffer::Priv" = type <{ %"struct.cv::gapi::fluid::Buffer::Cache", i32, [4 x i8], %"struct.cv::GMatDesc", i8, [3 x i8], i32, %"class.std::vector.25", %"class.std::unique_ptr.30", i32, %"class.cv::Rect_", [4 x i8] }>
%"class.std::vector.25" = type { %"struct.std::_Vector_base.26" }
%"struct.std::_Vector_base.26" = type { %"struct.std::_Vector_base<const cv::gapi::fluid::View *, std::allocator<const cv::gapi::fluid::View *>>::_Vector_impl" }
%"struct.std::_Vector_base<const cv::gapi::fluid::View *, std::allocator<const cv::gapi::fluid::View *>>::_Vector_impl" = type { %"struct.std::_Vector_base<const cv::gapi::fluid::View *, std::allocator<const cv::gapi::fluid::View *>>::_Vector_impl_data" }
%"struct.std::_Vector_base<const cv::gapi::fluid::View *, std::allocator<const cv::gapi::fluid::View *>>::_Vector_impl_data" = type { ptr, ptr, ptr }
%"class.std::unique_ptr.30" = type { %"struct.std::__uniq_ptr_data.31" }
%"struct.std::__uniq_ptr_data.31" = type { %"class.std::__uniq_ptr_impl.32" }
%"class.std::__uniq_ptr_impl.32" = type { %"class.std::tuple.33" }
%"class.std::tuple.33" = type { %"struct.std::_Tuple_impl.34" }
%"struct.std::_Tuple_impl.34" = type { %"struct.std::_Head_base.37" }
%"struct.std::_Head_base.37" = type { ptr }

; Function Attrs: mustprogress nounwind uwtable
define linkonce_odr hidden noundef nonnull align 8 dereferenceable(8) ptr @_ZNSt10_Head_baseILm0EPN2cv4gapi5fluid13BufferStorageELb0EE7_M_headERKS5_(ptr noundef nonnull align 8 dereferenceable(8) %0) #8 comdat align 2 {
  %2 = alloca ptr, align 8
  store ptr %0, ptr %2, align 8, !tbaa !283
  %3 = load ptr, ptr %2, align 8, !tbaa !283
  %4 = getelementptr inbounds nuw %"struct.std::_Head_base.37", ptr %3, i32 0, i32 0
  ret ptr %4
}

; Function Attrs: mustprogress nounwind uwtable
define linkonce_odr hidden noundef nonnull align 8 dereferenceable(8) ptr @_ZNSt11_Tuple_implILm0EJPN2cv4gapi5fluid13BufferStorageESt14default_deleteIS3_EEE7_M_headERKS7_(ptr noundef nonnull align 8 dereferenceable(8) %0) #8 comdat align 2 {
  %2 = alloca ptr, align 8
  store ptr %0, ptr %2, align 8, !tbaa !281
  %3 = load ptr, ptr %2, align 8, !tbaa !281
  %4 = call noundef nonnull align 8 dereferenceable(8) ptr @_ZNSt10_Head_baseILm0EPN2cv4gapi5fluid13BufferStorageELb0EE7_M_headERKS5_(ptr noundef nonnull align 8 dereferenceable(8) %3) #3
  ret ptr %4
}

; Function Attrs: mustprogress nounwind uwtable
define linkonce_odr hidden noundef nonnull align 8 dereferenceable(8) ptr @_ZSt12__get_helperILm0EPN2cv4gapi5fluid13BufferStorageEJSt14default_deleteIS3_EEERKT0_RKSt11_Tuple_implIXT_EJS7_DpT1_EE(ptr noundef nonnull align 8 dereferenceable(8) %0) #8 comdat {
  %2 = alloca ptr, align 8
  store ptr %0, ptr %2, align 8, !tbaa !281
  %3 = load ptr, ptr %2, align 8, !tbaa !281
  %4 = call noundef nonnull align 8 dereferenceable(8) ptr @_ZNSt11_Tuple_implILm0EJPN2cv4gapi5fluid13BufferStorageESt14default_deleteIS3_EEE7_M_headERKS7_(ptr noundef nonnull align 8 dereferenceable(8) %3) #3
  ret ptr %4
}

; Function Attrs: mustprogress nounwind uwtable
define linkonce_odr hidden noundef nonnull align 8 dereferenceable(8) ptr @_ZSt3getILm0EJPN2cv4gapi5fluid13BufferStorageESt14default_deleteIS3_EEERKNSt13tuple_elementIXT_ESt5tupleIJDpT0_EEE4typeERKSB_(ptr noundef nonnull align 8 dereferenceable(8) %0) #8 comdat {
  %2 = alloca ptr, align 8
  store ptr %0, ptr %2, align 8, !tbaa !279
  %3 = load ptr, ptr %2, align 8, !tbaa !279
  %4 = call noundef nonnull align 8 dereferenceable(8) ptr @_ZSt12__get_helperILm0EPN2cv4gapi5fluid13BufferStorageEJSt14default_deleteIS3_EEERKT0_RKSt11_Tuple_implIXT_EJS7_DpT1_EE(ptr noundef nonnull align 8 dereferenceable(8) %3) #3
  ret ptr %4
}

; Function Attrs: mustprogress nounwind uwtable
define linkonce_odr hidden noundef ptr @_ZNKSt15__uniq_ptr_implIN2cv4gapi5fluid13BufferStorageESt14default_deleteIS3_EE6_M_ptrEv(ptr noundef nonnull align 8 dereferenceable(8) %0) #8 comdat align 2 {
  %2 = alloca ptr, align 8
  store ptr %0, ptr %2, align 8, !tbaa !277
  %3 = load ptr, ptr %2, align 8
  %4 = getelementptr inbounds nuw %"class.std::__uniq_ptr_impl.32", ptr %3, i32 0, i32 0
  %5 = call noundef nonnull align 8 dereferenceable(8) ptr @_ZSt3getILm0EJPN2cv4gapi5fluid13BufferStorageESt14default_deleteIS3_EEERKNSt13tuple_elementIXT_ESt5tupleIJDpT0_EEE4typeERKSB_(ptr noundef nonnull align 8 dereferenceable(8) %4) #3
  %6 = load ptr, ptr %5, align 8, !tbaa !48
  ret ptr %6
}

; Function Attrs: mustprogress nounwind uwtable
define linkonce_odr hidden noundef ptr @_ZNKSt10unique_ptrIN2cv4gapi5fluid13BufferStorageESt14default_deleteIS3_EE3getEv(ptr noundef nonnull align 8 dereferenceable(8) %0) #8 comdat align 2 {
  %2 = alloca ptr, align 8
  store ptr %0, ptr %2, align 8, !tbaa !173
  %3 = load ptr, ptr %2, align 8
  %4 = getelementptr inbounds nuw %"class.std::unique_ptr.30", ptr %3, i32 0, i32 0
  %5 = call noundef ptr @_ZNKSt15__uniq_ptr_implIN2cv4gapi5fluid13BufferStorageESt14default_deleteIS3_EE6_M_ptrEv(ptr noundef nonnull align 8 dereferenceable(8) %4) #3
  ret ptr %5
}

; Function Attrs: inlinehint mustprogress nounwind uwtable
define linkonce_odr noundef nonnull align 4 dereferenceable(4) ptr @_ZSt3minIiERKT_S2_S2_(ptr noundef nonnull align 4 dereferenceable(4) %0, ptr noundef nonnull align 4 dereferenceable(4) %1) #5 comdat {
  %3 = alloca ptr, align 8
  %4 = alloca ptr, align 8
  %5 = alloca ptr, align 8
  store ptr %0, ptr %4, align 8, !tbaa !184
  store ptr %1, ptr %5, align 8, !tbaa !184
  %6 = load ptr, ptr %5, align 8, !tbaa !184
  %7 = load i32, ptr %6, align 4, !tbaa !20
  %8 = load ptr, ptr %4, align 8, !tbaa !184
  %9 = load i32, ptr %8, align 4, !tbaa !20
  %10 = icmp slt i32 %7, %9
  br i1 %10, label %11, label %13

11:                                               ; preds = %2
  %12 = load ptr, ptr %5, align 8, !tbaa !184
  store ptr %12, ptr %3, align 8
  br label %15

13:                                               ; preds = %2
  %14 = load ptr, ptr %4, align 8, !tbaa !184
  store ptr %14, ptr %3, align 8
  br label %15

15:                                               ; preds = %13, %11
  %16 = load ptr, ptr %3, align 8
  ret ptr %16
}

; Function Attrs: inlinehint mustprogress nounwind uwtable
define linkonce_odr hidden noundef i32 @_ZNK2cv4gapi5fluid6Buffer4Priv11outputLinesEv(ptr noundef nonnull align 8 dereferenceable(188) %0) #5 comdat align 2 {
  %2 = alloca ptr, align 8
  store ptr %0, ptr %2, align 8, !tbaa !113
  %3 = load ptr, ptr %2, align 8
  %4 = getelementptr inbounds nuw %"class.cv::gapi::fluid::Buffer::Priv", ptr %3, i32 0, i32 10
  %5 = getelementptr inbounds nuw %"class.cv::Rect_", ptr %4, i32 0, i32 3
  %6 = load i32, ptr %5, align 4, !tbaa !187
  ret i32 %6
}

; Function Attrs: inlinehint mustprogress nounwind uwtable
define linkonce_odr hidden noundef i32 @_ZNK2cv4gapi5fluid6Buffer4Priv10writeStartEv(ptr noundef nonnull align 8 dereferenceable(188) %0) #5 comdat align 2 {
  %2 = alloca ptr, align 8
  store ptr %0, ptr %2, align 8, !tbaa !113
  %3 = load ptr, ptr %2, align 8
  %4 = getelementptr inbounds nuw %"class.cv::gapi::fluid::Buffer::Priv", ptr %3, i32 0, i32 10
  %5 = getelementptr inbounds nuw %"class.cv::Rect_", ptr %4, i32 0, i32 1
  %6 = load i32, ptr %5, align 4, !tbaa !134
  ret i32 %6
}

; Function Attrs: inlinehint mustprogress nounwind uwtable
define linkonce_odr hidden noundef i32 @_ZNK2cv4gapi5fluid13BufferStorage4rowsEv(ptr noundef nonnull align 8 dereferenceable(104) %0) #5 comdat align 2 {
  %2 = alloca ptr, align 8
  store ptr %0, ptr %2, align 8, !tbaa !48
  %3 = load ptr, ptr %2, align 8
  %4 = getelementptr inbounds nuw %"class.cv::gapi::fluid::BufferStorage", ptr %3, i32 0, i32 1
  %5 = getelementptr inbounds nuw %"class.cv::Mat", ptr %4, i32 0, i32 2
  %6 = load i32, ptr %5, align 8, !tbaa !100
  ret i32 %6
}

; Function Attrs: mustprogress nounwind uwtable
define linkonce_odr hidden noundef ptr @_ZNKSt10unique_ptrIN2cv4gapi5fluid13BufferStorageESt14default_deleteIS3_EEptEv(ptr noundef nonnull align 8 dereferenceable(8) %0) #8 comdat align 2 {
  %2 = alloca ptr, align 8
  store ptr %0, ptr %2, align 8, !tbaa !173
  %3 = load ptr, ptr %2, align 8
  %4 = call noundef ptr @_ZNKSt10unique_ptrIN2cv4gapi5fluid13BufferStorageESt14default_deleteIS3_EE3getEv(ptr noundef nonnull align 8 dereferenceable(8) %3) #3
  ret ptr %4
}

; Function Attrs: mustprogress uwtable
define noundef i32 @_ZNK2cv4gapi5fluid6Buffer4Priv10linesReadyEv(ptr noundef nonnull align 8 dereferenceable(188) %0) #4 align 2 {
  %2 = alloca i32, align 4
  %3 = alloca ptr, align 8
  %4 = alloca i32, align 4
  %5 = alloca i32, align 4
  %6 = alloca i32, align 4
  store ptr %0, ptr %3, align 8, !tbaa !113
  %7 = load ptr, ptr %3, align 8
  %8 = getelementptr inbounds nuw %"class.cv::gapi::fluid::Buffer::Priv", ptr %7, i32 0, i32 4
  %9 = load i8, ptr %8, align 8, !tbaa !160, !range !168, !noundef !169
  %10 = trunc i8 %9 to i1
  br i1 %10, label %11, label %15

11:                                               ; preds = %1
  %12 = getelementptr inbounds nuw %"class.cv::gapi::fluid::Buffer::Priv", ptr %7, i32 0, i32 8
  %13 = call noundef ptr @_ZNKSt10unique_ptrIN2cv4gapi5fluid13BufferStorageESt14default_deleteIS3_EEptEv(ptr noundef nonnull align 8 dereferenceable(8) %12) #3
  %14 = call noundef i32 @_ZNK2cv4gapi5fluid13BufferStorage4rowsEv(ptr noundef nonnull align 8 dereferenceable(104) %13)
  store i32 %14, ptr %2, align 4
  br label %24

15:                                               ; preds = %1
  call void @llvm.lifetime.start.p0(i64 4, ptr %4) #3
  call void @llvm.lifetime.start.p0(i64 4, ptr %5) #3
  %16 = getelementptr inbounds nuw %"class.cv::gapi::fluid::Buffer::Priv", ptr %7, i32 0, i32 6
  %17 = load i32, ptr %16, align 4, !tbaa !161
  %18 = call noundef i32 @_ZNK2cv4gapi5fluid6Buffer4Priv10writeStartEv(ptr noundef nonnull align 8 dereferenceable(188) %7)
  %19 = sub nsw i32 %17, %18
  store i32 %19, ptr %5, align 4, !tbaa !20
  call void @llvm.lifetime.start.p0(i64 4, ptr %6) #3
  %20 = call noundef i32 @_ZNK2cv4gapi5fluid6Buffer4Priv11outputLinesEv(ptr noundef nonnull align 8 dereferenceable(188) %7)
  store i32 %20, ptr %6, align 4, !tbaa !20
  %21 = call noundef nonnull align 4 dereferenceable(4) ptr @_ZSt3minIiERKT_S2_S2_(ptr noundef nonnull align 4 dereferenceable(4) %5, ptr noundef nonnull align 4 dereferenceable(4) %6)
  %22 = load i32, ptr %21, align 4, !tbaa !20
  call void @llvm.lifetime.end.p0(i64 4, ptr %6) #3
  call void @llvm.lifetime.end.p0(i64 4, ptr %5) #3
  store i32 %22, ptr %4, align 4, !tbaa !20
  %23 = load i32, ptr %4, align 4, !tbaa !20
  store i32 %23, ptr %2, align 4
  call void @llvm.lifetime.end.p0(i64 4, ptr %4) #3
  br label %24

24:                                               ; preds = %15, %11
  %25 = load i32, ptr %2, align 4
  ret i32 %25
}