; Function Attrs: mustprogress nofree norecurse nosync nounwind willreturn memory(read, inaccessiblemem: none) uwtable
define noundef i32 @_ZNK2cv4gapi5fluid6Buffer4Priv10linesReadyEv(ptr noundef nonnull readonly align 8 captures(none) dereferenceable(188) %0) local_unnamed_addr #7 align 2 {
  %2 = getelementptr inbounds nuw i8, ptr %0, i64 128
  %3 = load i8, ptr %2, align 8, !tbaa !111, !range !112, !noundef !113
  %4 = trunc nuw i8 %3 to i1
  br i1 %4, label %5, label %10

5:                                                ; preds = %1
  %6 = getelementptr inbounds nuw i8, ptr %0, i64 160
  %7 = load ptr, ptr %6, align 8, !tbaa !114
  %8 = getelementptr inbounds nuw i8, ptr %7, i64 16
  %9 = load i32, ptr %8, align 8, !tbaa !74
  br label %18

10:                                               ; preds = %1
  %11 = getelementptr inbounds nuw i8, ptr %0, i64 132
  %12 = load i32, ptr %11, align 4, !tbaa !115
  %13 = getelementptr inbounds nuw i8, ptr %0, i64 176
  %14 = load i32, ptr %13, align 8, !tbaa !110
  %15 = sub nsw i32 %12, %14
  %16 = getelementptr inbounds nuw i8, ptr %0, i64 184
  %17 = load i32, ptr %16, align 8, !tbaa !116
  %.sroa.speculated = tail call i32 @llvm.smin.i32(i32 %17, i32 %15)
  br label %18

18:                                               ; preds = %10, %5
  %.0 = phi i32 [ %9, %5 ], [ %.sroa.speculated, %10 ]
  ret i32 %.0
}